	.section	__TEXT,__text,regular,pure_instructions
	.build_version macos, 11, 0	sdk_version 11, 3
	.file	1 "/Users/jackkieny/Documents/School/Fall 2021/CSCE 231/integer-lab" "./alu.h"
	.file	2 "/Applications/Xcode.app/Contents/Developer/Platforms/MacOSX.platform/Developer/SDKs/MacOSX.sdk/usr/include/_types" "_uint16_t.h"
	.globl	_add                            ## -- Begin function add
	.p2align	4, 0x90
_add:                                   ## @add
Lfunc_begin0:
	.file	3 "/Users/jackkieny/Documents/School/Fall 2021/CSCE 231/integer-lab" "alu.c"
	.loc	3 43 0                          ## alu.c:43:0
	.cfi_startproc
## %bb.0:
	##DEBUG_VALUE: add:augend <- $edi
	##DEBUG_VALUE: add:augend <- $edi
	##DEBUG_VALUE: add:addend <- $esi
	##DEBUG_VALUE: add:addend <- $esi
	.loc	3 48 15 prologue_end            ## alu.c:48:15
	testw	%di, %di
Ltmp0:
	.loc	3 48 8 is_stmt 0                ## alu.c:48:8
	je	LBB0_10
Ltmp1:
## %bb.1:
	##DEBUG_VALUE: add:addend <- $esi
	##DEBUG_VALUE: add:augend <- $edi
	.loc	3 53 20 is_stmt 1               ## alu.c:53:20
	testw	%si, %si
Ltmp2:
	.loc	3 53 13 is_stmt 0               ## alu.c:53:13
	je	LBB0_11
Ltmp3:
## %bb.2:
	##DEBUG_VALUE: add:addend <- $esi
	##DEBUG_VALUE: add:augend <- $edi
	.loc	3 0 13                          ## alu.c:0:13
	movl	%edi, %ecx
	movl	%esi, %eax
Ltmp4:
	.p2align	4, 0x90
LBB0_3:                                 ## =>This Inner Loop Header: Depth=1
	##DEBUG_VALUE: add:augend <- $cx
	##DEBUG_VALUE: add:addend <- $ax
	.loc	3 68 24 is_stmt 1               ## alu.c:68:24
	movl	%ecx, %edx
	andl	%eax, %edx
Ltmp5:
	##DEBUG_VALUE: add:carry <- undef
	.loc	3 69 25                         ## alu.c:69:25
	xorl	%eax, %ecx
Ltmp6:
	##DEBUG_VALUE: add:augend <- $cx
	.loc	3 70 24                         ## alu.c:70:24
	addl	%edx, %edx
	movl	%edx, %eax
Ltmp7:
	##DEBUG_VALUE: add:addition <- [DW_OP_LLVM_fragment 0 16] undef
	##DEBUG_VALUE: add:addend <- $ax
	.loc	3 67 18                         ## alu.c:67:18
	testw	%dx, %dx
	.loc	3 67 5 is_stmt 0                ## alu.c:67:5
	jne	LBB0_3
Ltmp8:
## %bb.4:
	##DEBUG_VALUE: add:augend <- $cx
	##DEBUG_VALUE: add:addend <- $ax
	pushq	%rbp
	.cfi_def_cfa_offset 16
	.cfi_offset %rbp, -16
	movq	%rsp, %rbp
	.cfi_def_cfa_register %rbp
	xorw	%cx, %ax
Ltmp9:
	##DEBUG_VALUE: add:addition <- [DW_OP_LLVM_fragment 0 16] $ax
	.loc	3 0 5                           ## alu.c:0:5
	setne	%r8b
Ltmp10:
	.loc	3 74 25 is_stmt 1               ## alu.c:74:25
	cmpw	%di, %ax
	setb	%dl
	cmpw	%si, %ax
	setb	%cl
Ltmp11:
	.loc	3 74 39 is_stmt 0               ## alu.c:74:39
	andb	%dl, %cl
	andb	%r8b, %cl
Ltmp12:
	##DEBUG_VALUE: add:result_sign <- [DW_OP_constu 15, DW_OP_shr, DW_OP_stack_value] $ax
	##DEBUG_VALUE: add:addition <- [DW_OP_LLVM_fragment 16 8] $cl
	.loc	3 84 8 is_stmt 1                ## alu.c:84:8
	movq	_is_signed@GOTPCREL(%rip), %rdx
	cmpb	$0, (%rdx)
Ltmp13:
	.loc	3 84 8 is_stmt 0                ## alu.c:84:8
	popq	%rbp
	je	LBB0_12
Ltmp14:
## %bb.5:
	##DEBUG_VALUE: add:addition <- [DW_OP_LLVM_fragment 16 8] $cl
	##DEBUG_VALUE: add:result_sign <- [DW_OP_constu 15, DW_OP_shr, DW_OP_stack_value] $ax
	##DEBUG_VALUE: add:addition <- [DW_OP_LLVM_fragment 0 16] $ax
	##DEBUG_VALUE: add:result_sign <- [DW_OP_constu 15, DW_OP_shr, DW_OP_stack_value] $ax
	.loc	3 85 29 is_stmt 1               ## alu.c:85:29
	movl	%esi, %edx
	orw	%di, %dx
	js	LBB0_7
Ltmp15:
## %bb.6:
	##DEBUG_VALUE: add:addition <- [DW_OP_LLVM_fragment 16 8] $cl
	##DEBUG_VALUE: add:result_sign <- [DW_OP_constu 15, DW_OP_shr, DW_OP_stack_value] $ax
	##DEBUG_VALUE: add:addition <- [DW_OP_LLVM_fragment 0 16] $ax
	testw	%ax, %ax
	js	LBB0_9
Ltmp16:
LBB0_7:
	##DEBUG_VALUE: add:addition <- [DW_OP_LLVM_fragment 16 8] $cl
	##DEBUG_VALUE: add:result_sign <- [DW_OP_constu 15, DW_OP_shr, DW_OP_stack_value] $ax
	##DEBUG_VALUE: add:addition <- [DW_OP_LLVM_fragment 0 16] $ax
	.loc	3 86 34                         ## alu.c:86:34
	testw	%di, %si
	jns	LBB0_13
Ltmp17:
## %bb.8:
	##DEBUG_VALUE: add:addition <- [DW_OP_LLVM_fragment 16 8] $cl
	##DEBUG_VALUE: add:result_sign <- [DW_OP_constu 15, DW_OP_shr, DW_OP_stack_value] $ax
	##DEBUG_VALUE: add:addition <- [DW_OP_LLVM_fragment 0 16] $ax
	testw	%ax, %ax
	js	LBB0_13
Ltmp18:
LBB0_9:
	##DEBUG_VALUE: add:addition <- [DW_OP_LLVM_fragment 16 8] $cl
	##DEBUG_VALUE: add:result_sign <- [DW_OP_constu 15, DW_OP_shr, DW_OP_stack_value] $ax
	##DEBUG_VALUE: add:addition <- [DW_OP_LLVM_fragment 0 16] $ax
	.loc	3 0 34 is_stmt 0                ## alu.c:0:34
	movl	%eax, %esi
	movb	$1, %cl
Ltmp19:
	jmp	LBB0_16
Ltmp20:
LBB0_10:
	##DEBUG_VALUE: add:addend <- $esi
	##DEBUG_VALUE: add:augend <- $edi
	xorl	%ecx, %ecx
	jmp	LBB0_16
Ltmp21:
LBB0_11:
	##DEBUG_VALUE: add:addend <- $esi
	##DEBUG_VALUE: add:augend <- $edi
	xorl	%ecx, %ecx
	movl	%edi, %esi
Ltmp22:
	##DEBUG_VALUE: add:addend <- [DW_OP_LLVM_entry_value 1] $esi
	jmp	LBB0_16
Ltmp23:
LBB0_13:
	##DEBUG_VALUE: add:addition <- [DW_OP_LLVM_fragment 16 8] $cl
	##DEBUG_VALUE: add:result_sign <- [DW_OP_constu 15, DW_OP_shr, DW_OP_stack_value] $ax
	##DEBUG_VALUE: add:addition <- [DW_OP_LLVM_fragment 0 16] $ax
	.loc	3 87 34 is_stmt 1               ## alu.c:87:34
	orl	%eax, %edx
	xorl	%r9d, %r9d
	testw	%dx, %dx
	movzbl	%cl, %r8d
	movl	%r8d, %ecx
Ltmp24:
	cmovnsl	%r9d, %ecx
	testw	%di, %dx
	js	LBB0_15
Ltmp25:
LBB0_12:
	##DEBUG_VALUE: add:result_sign <- [DW_OP_constu 15, DW_OP_shr, DW_OP_stack_value] $ax
	##DEBUG_VALUE: add:addition <- [DW_OP_LLVM_fragment 0 16] $ax
	.loc	3 0 34 is_stmt 0                ## alu.c:0:34
	movl	%eax, %esi
Ltmp26:
LBB0_16:
	##DEBUG_VALUE: add:addition <- [DW_OP_LLVM_fragment 0 16] $si
	##DEBUG_VALUE: add:addition <- [DW_OP_LLVM_fragment 16 8] $cl
	.loc	3 92 1 is_stmt 1                ## alu.c:92:1
	movzbl	%cl, %ecx
Ltmp27:
	shll	$16, %ecx
	movzwl	%si, %eax
	orl	%ecx, %eax
	retq
Ltmp28:
LBB0_15:
	##DEBUG_VALUE: add:result_sign <- [DW_OP_constu 15, DW_OP_shr, DW_OP_stack_value] $ax
	##DEBUG_VALUE: add:addition <- [DW_OP_LLVM_fragment 0 16] $ax
	.loc	3 88 54                         ## alu.c:88:54
	testw	%si, %ax
	cmovsl	%r9d, %r8d
	movl	%eax, %esi
Ltmp29:
	.loc	3 0 0 is_stmt 0                 ## alu.c:0:0
	movl	%r8d, %ecx
	jmp	LBB0_16
Ltmp30:
Lfunc_end0:
	.cfi_endproc
                                        ## -- End function
	.globl	_subtract                       ## -- Begin function subtract
	.p2align	4, 0x90
_subtract:                              ## @subtract
Lfunc_begin1:
	.loc	3 97 0 is_stmt 1                ## alu.c:97:0
	.cfi_startproc
## %bb.0:
	##DEBUG_VALUE: subtract:menuend <- $edi
	##DEBUG_VALUE: subtract:subtrahend <- $esi
	pushq	%rbp
	.cfi_def_cfa_offset 16
	.cfi_offset %rbp, -16
	movq	%rsp, %rbp
	.cfi_def_cfa_register %rbp
	pushq	%rbx
	pushq	%rax
	.cfi_offset %rbx, -24
Ltmp31:
	##DEBUG_VALUE: subtract:augend <- $edi
	movl	%edi, %ebx
Ltmp32:
	##DEBUG_VALUE: subtract:i <- 1
	##DEBUG_VALUE: subtract:augend <- $ebx
	##DEBUG_VALUE: subtract:subtrahend <- $esi
	##DEBUG_VALUE: subtract:menuend <- $ebx
	.loc	3 100 23 prologue_end           ## alu.c:100:23
	xorl	$65535, %esi                    ## imm = 0xFFFF
Ltmp33:
	##DEBUG_VALUE: subtract:subtrahend <- [DW_OP_LLVM_entry_value 1] $esi
	movl	%esi, %edi
	movl	$1, %esi
	callq	_add
Ltmp34:
	.loc	3 111 12                        ## alu.c:111:12
	movzwl	%ax, %esi
Ltmp35:
	##DEBUG_VALUE: subtract:addend <- $esi
	movl	%ebx, %edi
Ltmp36:
	##DEBUG_VALUE: subtract:augend <- $edi
	##DEBUG_VALUE: subtract:menuend <- $edi
	callq	_add
Ltmp37:
	.loc	3 112 1                         ## alu.c:112:1
	addq	$8, %rsp
	popq	%rbx
	popq	%rbp
	retq
Ltmp38:
Lfunc_end1:
	.cfi_endproc
                                        ## -- End function
	.globl	_multiply                       ## -- Begin function multiply
	.p2align	4, 0x90
_multiply:                              ## @multiply
Lfunc_begin2:
	.loc	3 118 0                         ## alu.c:118:0
	.cfi_startproc
## %bb.0:
	##DEBUG_VALUE: multiply:multiplicand <- $edi
	##DEBUG_VALUE: multiply:multiplier <- $esi
	pushq	%rbp
	.cfi_def_cfa_offset 16
	.cfi_offset %rbp, -16
	movq	%rsp, %rbp
	.cfi_def_cfa_register %rbp
Ltmp39:
	.loc	3 131 5 prologue_end            ## alu.c:131:5
	xorl	%eax, %eax
	xorl	%edx, %edx
	popq	%rbp
	retq
Ltmp40:
Lfunc_end2:
	.cfi_endproc
                                        ## -- End function
	.globl	_divide                         ## -- Begin function divide
	.p2align	4, 0x90
_divide:                                ## @divide
Lfunc_begin3:
	.loc	3 138 0                         ## alu.c:138:0
	.cfi_startproc
## %bb.0:
	##DEBUG_VALUE: divide:dividend <- $edi
	##DEBUG_VALUE: divide:divisor <- $esi
	##DEBUG_VALUE: divide:divisor <- $esi
	pushq	%rbp
	.cfi_def_cfa_offset 16
	.cfi_offset %rbp, -16
	movq	%rsp, %rbp
	.cfi_def_cfa_register %rbp
Ltmp41:
	.loc	3 146 15 prologue_end           ## alu.c:146:15
	xorl	%eax, %eax
	testw	%si, %si
	sete	%al
Ltmp42:
	##DEBUG_VALUE: divide:division <- [DW_OP_LLVM_convert 1 7, DW_OP_LLVM_convert 48 7, DW_OP_stack_value, DW_OP_LLVM_fragment 32 8] $al
	.loc	3 156 1                         ## alu.c:156:1
	shlq	$32, %rax
Ltmp43:
	popq	%rbp
	retq
Ltmp44:
Lfunc_end3:
	.cfi_endproc
                                        ## -- End function
	.comm	_is_signed,1,0                  ## @is_signed
	.file	4 "/Applications/Xcode.app/Contents/Developer/Platforms/MacOSX.platform/Developer/SDKs/MacOSX.sdk/usr/include/_types" "_uint32_t.h"